; Function Attrs: nounwind uwtable
define ptr @l___private_Std_Time_Time_HourMarker_0__Std_Time_reprHourMarker____x40_Std_Time_Time_HourMarker___hyg_12____boxed(ptr noundef %0, ptr noundef %1) #1 {
  %3 = ptrtoint ptr %0 to i64
  %4 = and i64 %3, 1
  %.not = icmp eq i64 %4, 0
  br i1 %.not, label %5, label %lean_dec.exit5

5:                                                ; preds = %2
  %6 = load i32, ptr %0, align 4, !tbaa !4
  %7 = icmp sgt i32 %6, 1
  br i1 %7, label %8, label %10, !prof !9

8:                                                ; preds = %5
  %9 = add nsw i32 %6, -1
  store i32 %9, ptr %0, align 4, !tbaa !4
  br label %lean_dec.exit5

10:                                               ; preds = %5
  %.not.i = icmp eq i32 %6, 0
  br i1 %.not.i, label %lean_dec.exit5, label %11

11:                                               ; preds = %10
  tail call void @lean_dec_ref_cold(ptr noundef nonnull %0) #7
  br label %lean_dec.exit5

lean_dec.exit5:                                   ; preds = %11, %10, %8, %2
  %12 = and i64 %3, 510
  %13 = icmp eq i64 %12, 0
  %14 = ptrtoint ptr %1 to i64
  %15 = and i64 %14, 1
  %.not22.i = icmp eq i64 %15, 0
  br i1 %13, label %16, label %19

16:                                               ; preds = %lean_dec.exit5
  br i1 %.not22.i, label %lean_nat_le.exit.i, label %17, !prof !15

17:                                               ; preds = %16
  %.not23.i = icmp ult ptr %1, inttoptr (i64 2049 to ptr)
  br i1 %.not23.i, label %l___private_Std_Time_Time_HourMarker_0__Std_Time_reprHourMarker____x40_Std_Time_Time_HourMarker___hyg_12_.exit.thread, label %l___private_Std_Time_Time_HourMarker_0__Std_Time_reprHourMarker____x40_Std_Time_Time_HourMarker___hyg_12_.exit.thread16

lean_nat_le.exit.i:                               ; preds = %16
  %18 = tail call zeroext i1 @lean_nat_big_le(ptr noundef nonnull inttoptr (i64 2049 to ptr), ptr noundef %1) #7
  br i1 %18, label %l___private_Std_Time_Time_HourMarker_0__Std_Time_reprHourMarker____x40_Std_Time_Time_HourMarker___hyg_12_.exit, label %l___private_Std_Time_Time_HourMarker_0__Std_Time_reprHourMarker____x40_Std_Time_Time_HourMarker___hyg_12_.exit.thread12

19:                                               ; preds = %lean_dec.exit5
  br i1 %.not22.i, label %lean_nat_le.exit21.i, label %20, !prof !15

20:                                               ; preds = %19
  %.not.i8 = icmp ult ptr %1, inttoptr (i64 2049 to ptr)
  br i1 %.not.i8, label %l___private_Std_Time_Time_HourMarker_0__Std_Time_reprHourMarker____x40_Std_Time_Time_HourMarker___hyg_12_.exit.thread, label %l___private_Std_Time_Time_HourMarker_0__Std_Time_reprHourMarker____x40_Std_Time_Time_HourMarker___hyg_12_.exit.thread16

lean_nat_le.exit21.i:                             ; preds = %19
  %21 = tail call zeroext i1 @lean_nat_big_le(ptr noundef nonnull inttoptr (i64 2049 to ptr), ptr noundef %1) #7
  br i1 %21, label %l___private_Std_Time_Time_HourMarker_0__Std_Time_reprHourMarker____x40_Std_Time_Time_HourMarker___hyg_12_.exit, label %l___private_Std_Time_Time_HourMarker_0__Std_Time_reprHourMarker____x40_Std_Time_Time_HourMarker___hyg_12_.exit.thread12

l___private_Std_Time_Time_HourMarker_0__Std_Time_reprHourMarker____x40_Std_Time_Time_HourMarker___hyg_12_.exit.thread: ; preds = %17, %20
  %l___private_Std_Time_Time_HourMarker_0__Std_Time_reprHourMarker____x40_Std_Time_Time_HourMarker___hyg_12____closed__12.sink.i.ph = phi ptr [ @l___private_Std_Time_Time_HourMarker_0__Std_Time_reprHourMarker____x40_Std_Time_Time_HourMarker___hyg_12____closed__12, %20 ], [ @l___private_Std_Time_Time_HourMarker_0__Std_Time_reprHourMarker____x40_Std_Time_Time_HourMarker___hyg_12____closed__5, %17 ]
  %22 = load ptr, ptr %l___private_Std_Time_Time_HourMarker_0__Std_Time_reprHourMarker____x40_Std_Time_Time_HourMarker___hyg_12____closed__12.sink.i.ph, align 8, !tbaa !10
  %23 = tail call ptr @l_Repr_addAppParen(ptr noundef %22, ptr noundef %1) #7
  br label %lean_dec.exit

l___private_Std_Time_Time_HourMarker_0__Std_Time_reprHourMarker____x40_Std_Time_Time_HourMarker___hyg_12_.exit.thread16: ; preds = %20, %17
  %l___private_Std_Time_Time_HourMarker_0__Std_Time_reprHourMarker____x40_Std_Time_Time_HourMarker___hyg_12____closed__12.sink.i.ph15 = phi ptr [ @l___private_Std_Time_Time_HourMarker_0__Std_Time_reprHourMarker____x40_Std_Time_Time_HourMarker___hyg_12____closed__14, %20 ], [ @l___private_Std_Time_Time_HourMarker_0__Std_Time_reprHourMarker____x40_Std_Time_Time_HourMarker___hyg_12____closed__8, %17 ]
  %24 = load ptr, ptr %l___private_Std_Time_Time_HourMarker_0__Std_Time_reprHourMarker____x40_Std_Time_Time_HourMarker___hyg_12____closed__12.sink.i.ph15, align 8, !tbaa !10
  %25 = tail call ptr @l_Repr_addAppParen(ptr noundef %24, ptr noundef %1) #7
  br label %lean_dec.exit

l___private_Std_Time_Time_HourMarker_0__Std_Time_reprHourMarker____x40_Std_Time_Time_HourMarker___hyg_12_.exit: ; preds = %lean_nat_le.exit21.i, %lean_nat_le.exit.i
  %l___private_Std_Time_Time_HourMarker_0__Std_Time_reprHourMarker____x40_Std_Time_Time_HourMarker___hyg_12____closed__12.sink.i = phi ptr [ @l___private_Std_Time_Time_HourMarker_0__Std_Time_reprHourMarker____x40_Std_Time_Time_HourMarker___hyg_12____closed__8, %lean_nat_le.exit.i ], [ @l___private_Std_Time_Time_HourMarker_0__Std_Time_reprHourMarker____x40_Std_Time_Time_HourMarker___hyg_12____closed__14, %lean_nat_le.exit21.i ]
  br label %l___private_Std_Time_Time_HourMarker_0__Std_Time_reprHourMarker____x40_Std_Time_Time_HourMarker___hyg_12_.exit.thread12

l___private_Std_Time_Time_HourMarker_0__Std_Time_reprHourMarker____x40_Std_Time_Time_HourMarker___hyg_12_.exit.thread12: ; preds = %lean_nat_le.exit21.i, %lean_nat_le.exit.i, %l___private_Std_Time_Time_HourMarker_0__Std_Time_reprHourMarker____x40_Std_Time_Time_HourMarker___hyg_12_.exit
  %l___private_Std_Time_Time_HourMarker_0__Std_Time_reprHourMarker____x40_Std_Time_Time_HourMarker___hyg_12____closed__12.sink.i.sink = phi ptr [ %l___private_Std_Time_Time_HourMarker_0__Std_Time_reprHourMarker____x40_Std_Time_Time_HourMarker___hyg_12____closed__12.sink.i, %l___private_Std_Time_Time_HourMarker_0__Std_Time_reprHourMarker____x40_Std_Time_Time_HourMarker___hyg_12_.exit ], [ @l___private_Std_Time_Time_HourMarker_0__Std_Time_reprHourMarker____x40_Std_Time_Time_HourMarker___hyg_12____closed__12, %lean_nat_le.exit21.i ], [ @l___private_Std_Time_Time_HourMarker_0__Std_Time_reprHourMarker____x40_Std_Time_Time_HourMarker___hyg_12____closed__5, %lean_nat_le.exit.i ]
  %26 = load ptr, ptr %l___private_Std_Time_Time_HourMarker_0__Std_Time_reprHourMarker____x40_Std_Time_Time_HourMarker___hyg_12____closed__12.sink.i.sink, align 8, !tbaa !10
  %27 = tail call ptr @l_Repr_addAppParen(ptr noundef %26, ptr noundef %1) #7
  %28 = load i32, ptr %1, align 4, !tbaa !4
  %29 = icmp sgt i32 %28, 1
  br i1 %29, label %30, label %32, !prof !9

30:                                               ; preds = %l___private_Std_Time_Time_HourMarker_0__Std_Time_reprHourMarker____x40_Std_Time_Time_HourMarker___hyg_12_.exit.thread12
  %31 = add nsw i32 %28, -1
  store i32 %31, ptr %1, align 4, !tbaa !4
  br label %lean_dec.exit

32:                                               ; preds = %l___private_Std_Time_Time_HourMarker_0__Std_Time_reprHourMarker____x40_Std_Time_Time_HourMarker___hyg_12_.exit.thread12
  %.not.i6 = icmp eq i32 %28, 0
  br i1 %.not.i6, label %lean_dec.exit, label %33

33:                                               ; preds = %32
  tail call void @lean_dec_ref_cold(ptr noundef nonnull %1) #7
  br label %lean_dec.exit

lean_dec.exit:                                    ; preds = %l___private_Std_Time_Time_HourMarker_0__Std_Time_reprHourMarker____x40_Std_Time_Time_HourMarker___hyg_12_.exit.thread16, %33, %32, %30, %l___private_Std_Time_Time_HourMarker_0__Std_Time_reprHourMarker____x40_Std_Time_Time_HourMarker___hyg_12_.exit.thread
  %34 = phi ptr [ %23, %l___private_Std_Time_Time_HourMarker_0__Std_Time_reprHourMarker____x40_Std_Time_Time_HourMarker___hyg_12_.exit.thread ], [ %27, %30 ], [ %27, %32 ], [ %27, %33 ], [ %25, %l___private_Std_Time_Time_HourMarker_0__Std_Time_reprHourMarker____x40_Std_Time_Time_HourMarker___hyg_12_.exit.thread16 ]
  ret ptr %34
}